target datalayout = "e-m:e-p270:32:32-p271:32:32-p272:64:64-i64:64-i128:128-f80:128-n8:16:32:64-S128"
target triple = "x86_64-pc-linux-gnu"

%struct.GlobalContext = type { %struct.HTable, ptr, ptr, ptr, ptr, ptr, ptr, ptr, ptr, i8, i32, i32, i32, ptr, ptr, %struct.HTable, %struct.HTable, %struct.Module_, %struct.DeclTable, %struct.DeclTable, %struct.Path_, ptr, ptr, ptr, ptr, ptr, ptr, ptr, [65536 x ptr], ptr, ptr, ptr }
%struct.HTable = type { i32, ptr }
%struct.Module_ = type { ptr, ptr, ptr, i16, i32, ptr, %struct.HTable, ptr, ptr, ptr, ptr, ptr, ptr, ptr, ptr, ptr }
%struct.DeclTable = type { i32, i32, i32, ptr }
%struct.Path_ = type { %union.SourceSpan, ptr, i32 }
%union.SourceSpan = type { i64 }
%struct.VHeader_ = type { i32, i32, [0 x i8] }

@global_context = external global %struct.GlobalContext, align 8

; Function Attrs: nounwind uwtable
define internal void @vec_resize(ptr noundef %0, i32 noundef %1) #0 {
  %3 = alloca ptr, align 8
  %4 = alloca i32, align 4
  %5 = alloca ptr, align 8
  store ptr %0, ptr %3, align 8
  store i32 %1, ptr %4, align 4
  %6 = load ptr, ptr %3, align 8
  %7 = icmp ne ptr %6, null
  br i1 %7, label %9, label %8

8:                                                ; preds = %2
  br label %15

9:                                                ; preds = %2
  %10 = load ptr, ptr %3, align 8
  store ptr %10, ptr %5, align 8
  %11 = load i32, ptr %4, align 4
  %12 = load ptr, ptr %5, align 8
  %13 = getelementptr inbounds %struct.VHeader_, ptr %12, i64 -1
  %14 = getelementptr inbounds %struct.VHeader_, ptr %13, i32 0, i32 0
  store i32 %11, ptr %14, align 4
  br label %15

15:                                               ; preds = %9, %8
  ret void
}

; Function Attrs: nounwind uwtable
define internal void @vec_pop(ptr noundef %0) #0 {
  %2 = alloca ptr, align 8
  %3 = alloca ptr, align 8
  store ptr %0, ptr %2, align 8
  %4 = load ptr, ptr %2, align 8
  store ptr %4, ptr %3, align 8
  %5 = load ptr, ptr %3, align 8
  %6 = getelementptr inbounds %struct.VHeader_, ptr %5, i64 -1
  %7 = getelementptr inbounds %struct.VHeader_, ptr %6, i32 0, i32 0
  %8 = load i32, ptr %7, align 4
  %9 = add i32 %8, -1
  store i32 %9, ptr %7, align 4
  ret void
}

; Function Attrs: nounwind uwtable
define internal ptr @vec_new_(i64 noundef %0, i64 noundef %1) #0 {
  %3 = alloca i64, align 8
  %4 = alloca i64, align 8
  %5 = alloca ptr, align 8
  store i64 %0, ptr %3, align 8
  store i64 %1, ptr %4, align 8
  %6 = load i64, ptr %3, align 8
  %7 = load i64, ptr %4, align 8
  %8 = mul i64 %6, %7
  %9 = add i64 %8, 8
  %10 = call ptr @calloc_arena(i64 noundef %9)
  store ptr %10, ptr %5, align 8
  %11 = load i64, ptr %4, align 8
  %12 = trunc i64 %11 to i32
  %13 = load ptr, ptr %5, align 8
  %14 = getelementptr inbounds %struct.VHeader_, ptr %13, i32 0, i32 1
  store i32 %12, ptr %14, align 4
  %15 = load ptr, ptr %5, align 8
  ret ptr %15
}

; Function Attrs: nounwind uwtable
define dso_local ptr @global_context_acquire_locals_list() #0 {
  %1 = alloca i32, align 4
  %2 = alloca ptr, align 8
  %3 = alloca ptr, align 8
  %4 = alloca i32, align 4
  %5 = alloca ptr, align 8
  %6 = alloca ptr, align 8
  %7 = alloca ptr, align 8
  %8 = alloca ptr, align 8
  %9 = alloca i32, align 4
  %10 = alloca ptr, align 8
  %11 = load ptr, ptr getelementptr inbounds (%struct.GlobalContext, ptr @global_context, i32 0, i32 13), align 8
  store ptr %11, ptr %2, align 8
  %12 = load ptr, ptr %2, align 8
  %13 = icmp ne ptr %12, null
  br i1 %13, label %15, label %14

14:                                               ; preds = %0
  store i32 0, ptr %1, align 4
  br label %20

15:                                               ; preds = %0
  %16 = load ptr, ptr %2, align 8
  store ptr %16, ptr %3, align 8
  %17 = load ptr, ptr %3, align 8
  %18 = getelementptr inbounds %struct.VHeader_, ptr %17, i64 -1
  %19 = load i32, ptr %18, align 4
  store i32 %19, ptr %1, align 4
  br label %20

20:                                               ; preds = %15, %14
  %21 = load i32, ptr %1, align 4
  %22 = icmp ne i32 %21, 0
  br i1 %22, label %26, label %23

23:                                               ; preds = %20
  %24 = call ptr @vec_new_(i64 noundef 8, i64 noundef 64)
  %25 = getelementptr inbounds %struct.VHeader_, ptr %24, i64 1
  store ptr %25, ptr %7, align 8
  br label %54

26:                                               ; preds = %20
  %27 = load ptr, ptr getelementptr inbounds (%struct.GlobalContext, ptr @global_context, i32 0, i32 13), align 8
  store ptr %27, ptr %5, align 8
  %28 = load ptr, ptr %5, align 8
  %29 = icmp ne ptr %28, null
  br i1 %29, label %31, label %30

30:                                               ; preds = %26
  store i32 0, ptr %4, align 4
  br label %36

31:                                               ; preds = %26
  %32 = load ptr, ptr %5, align 8
  store ptr %32, ptr %6, align 8
  %33 = load ptr, ptr %6, align 8
  %34 = getelementptr inbounds %struct.VHeader_, ptr %33, i64 -1
  %35 = load i32, ptr %34, align 4
  store i32 %35, ptr %4, align 4
  br label %36

36:                                               ; preds = %31, %30
  %37 = load i32, ptr %4, align 4
  store i32 %37, ptr %9, align 4
  %38 = load i32, ptr %9, align 4
  %39 = icmp ne i32 %38, 0
  br i1 %39, label %40, label %47

40:                                               ; preds = %36
  %41 = load ptr, ptr getelementptr inbounds (%struct.GlobalContext, ptr @global_context, i32 0, i32 13), align 8
  %42 = load i32, ptr %9, align 4
  %43 = sub i32 %42, 1
  %44 = zext i32 %43 to i64
  %45 = getelementptr inbounds ptr, ptr %41, i64 %44
  %46 = load ptr, ptr %45, align 8
  br label %48

47:                                               ; preds = %36
  br label %48

48:                                               ; preds = %47, %40
  %49 = phi ptr [ %46, %40 ], [ null, %47 ]
  store ptr %49, ptr %10, align 8
  %50 = load ptr, ptr %10, align 8
  store ptr %50, ptr %8, align 8
  %51 = load ptr, ptr getelementptr inbounds (%struct.GlobalContext, ptr @global_context, i32 0, i32 13), align 8
  call void @vec_pop(ptr noundef %51)
  %52 = load ptr, ptr %8, align 8
  call void @vec_resize(ptr noundef %52, i32 noundef 0)
  %53 = load ptr, ptr %8, align 8
  store ptr %53, ptr %7, align 8
  br label %54

54:                                               ; preds = %48, %23
  %55 = load ptr, ptr %7, align 8
  ret ptr %55
}