; Function Attrs: nounwind uwtable
define dso_local ptr @global_context_acquire_locals_list() local_unnamed_addr #0 {
  %1 = load ptr, ptr getelementptr inbounds (%struct.GlobalContext, ptr @global_context, i64 0, i32 13), align 8
  %.not = icmp eq ptr %1, null
  br i1 %.not, label %.critedge, label %2

2:                                                ; preds = %0
  %3 = getelementptr inbounds i8, ptr %1, i64 -8
  %4 = load i32, ptr %3, align 4
  %5 = icmp eq i32 %4, 0
  br i1 %5, label %.critedge, label %9

.critedge:                                        ; preds = %0, %2
  %6 = tail call ptr @calloc_arena(i64 noundef 520) #10
  %7 = getelementptr inbounds i8, ptr %6, i64 4
  store i32 64, ptr %7, align 4
  %8 = getelementptr inbounds i8, ptr %6, i64 8
  br label %vec_resize.exit

9:                                                ; preds = %2
  %10 = add i32 %4, -1
  %11 = zext i32 %10 to i64
  %12 = getelementptr inbounds ptr, ptr %1, i64 %11
  %13 = load ptr, ptr %12, align 8
  store i32 %10, ptr %3, align 4
  %.not.i = icmp eq ptr %13, null
  br i1 %.not.i, label %vec_resize.exit, label %14

14:                                               ; preds = %9
  %15 = getelementptr inbounds i8, ptr %13, i64 -8
  store i32 0, ptr %15, align 4
  br label %vec_resize.exit

vec_resize.exit:                                  ; preds = %14, %9, %.critedge
  %.014 = phi ptr [ %8, %.critedge ], [ null, %9 ], [ %13, %14 ]
  ret ptr %.014
}